target datalayout = "e-m:e-p270:32:32-p271:32:32-p272:64:64-i64:64-i128:128-f80:128-n8:16:32:64-S128"
target triple = "x86_64-pc-linux-gnu"

%struct.pxr_nc_1_0_ColorSpaceM33Descriptor = type { ptr, %struct.pxr_nc_1_0_M33f, float, float }
%struct.pxr_nc_1_0_M33f = type { [9 x float] }
%"class.pxrInternal_v0_24__pxrReserved__::GfColorSpace" = type { %"class.std::shared_ptr" }
%"class.std::shared_ptr" = type { %"class.std::__shared_ptr" }
%"class.std::__shared_ptr" = type { ptr, %"class.std::__shared_count" }
%"class.std::__shared_count" = type { ptr }
%"struct.pxrInternal_v0_24__pxrReserved__::GfColorSpace::_Data" = type { ptr }

; Function Attrs: mustprogress nounwind uwtable
define linkonce_odr noundef ptr @_ZNKSt12__shared_ptrIN32pxrInternal_v0_24__pxrReserved__12GfColorSpace5_DataELN9__gnu_cxx12_Lock_policyE2EE3getEv(ptr noundef nonnull align 8 dereferenceable(16) %0) #2 comdat align 2 {
  %2 = alloca ptr, align 8
  store ptr %0, ptr %2, align 8
  %3 = load ptr, ptr %2, align 8
  %4 = getelementptr inbounds nuw %"class.std::__shared_ptr", ptr %3, i32 0, i32 0
  %5 = load ptr, ptr %4, align 8
  ret ptr %5
}

; Function Attrs: mustprogress nounwind uwtable
define linkonce_odr noundef ptr @_ZNKSt19__shared_ptr_accessIN32pxrInternal_v0_24__pxrReserved__12GfColorSpace5_DataELN9__gnu_cxx12_Lock_policyE2ELb0ELb0EE6_M_getEv(ptr noundef nonnull align 1 dereferenceable(1) %0) #2 comdat align 2 {
  %2 = alloca ptr, align 8
  store ptr %0, ptr %2, align 8
  %3 = load ptr, ptr %2, align 8
  %4 = call noundef ptr @_ZNKSt12__shared_ptrIN32pxrInternal_v0_24__pxrReserved__12GfColorSpace5_DataELN9__gnu_cxx12_Lock_policyE2EE3getEv(ptr noundef nonnull align 8 dereferenceable(16) %3) #9
  ret ptr %4
}

; Function Attrs: mustprogress nounwind uwtable
define linkonce_odr noundef ptr @_ZNKSt19__shared_ptr_accessIN32pxrInternal_v0_24__pxrReserved__12GfColorSpace5_DataELN9__gnu_cxx12_Lock_policyE2ELb0ELb0EEptEv(ptr noundef nonnull align 1 dereferenceable(1) %0) #2 comdat align 2 {
  %2 = alloca ptr, align 8
  store ptr %0, ptr %2, align 8
  %3 = load ptr, ptr %2, align 8
  %4 = call noundef ptr @_ZNKSt19__shared_ptr_accessIN32pxrInternal_v0_24__pxrReserved__12GfColorSpace5_DataELN9__gnu_cxx12_Lock_policyE2ELb0ELb0EE6_M_getEv(ptr noundef nonnull align 1 dereferenceable(1) %3) #9
  ret ptr %4
}

; Function Attrs: mustprogress uwtable
define noundef float @_ZNK32pxrInternal_v0_24__pxrReserved__12GfColorSpace13GetLinearBiasEv(ptr noundef nonnull align 8 dereferenceable(16) %0) #0 align 2 {
  %2 = alloca float, align 4
  %3 = alloca ptr, align 8
  %4 = alloca %struct.pxr_nc_1_0_ColorSpaceM33Descriptor, align 8
  store ptr %0, ptr %3, align 8
  %5 = load ptr, ptr %3, align 8
  %6 = getelementptr inbounds nuw %"class.pxrInternal_v0_24__pxrReserved__::GfColorSpace", ptr %5, i32 0, i32 0
  %7 = call noundef ptr @_ZNKSt19__shared_ptr_accessIN32pxrInternal_v0_24__pxrReserved__12GfColorSpace5_DataELN9__gnu_cxx12_Lock_policyE2ELb0ELb0EEptEv(ptr noundef nonnull align 1 dereferenceable(1) %6) #9
  %8 = getelementptr inbounds nuw %"struct.pxrInternal_v0_24__pxrReserved__::GfColorSpace::_Data", ptr %7, i32 0, i32 0
  %9 = load ptr, ptr %8, align 8
  %10 = call zeroext i1 @pxr_nc_1_0_GetColorSpaceM33Descriptor(ptr noundef %9, ptr noundef %4)
  br i1 %10, label %12, label %11

11:                                               ; preds = %1
  store float 0.000000e+00, ptr %2, align 4
  br label %15

12:                                               ; preds = %1
  %13 = getelementptr inbounds nuw %struct.pxr_nc_1_0_ColorSpaceM33Descriptor, ptr %4, i32 0, i32 3
  %14 = load float, ptr %13, align 8
  store float %14, ptr %2, align 4
  br label %15

15:                                               ; preds = %12, %11
  %16 = load float, ptr %2, align 4
  ret float %16
}