; Function Attrs: mustprogress uwtable
define noundef float @_ZNK32pxrInternal_v0_24__pxrReserved__12GfColorSpace13GetLinearBiasEv(ptr noundef nonnull readonly align 8 captures(none) dereferenceable(16) %0) local_unnamed_addr #0 align 2 {
  %2 = alloca %struct.pxr_nc_1_0_ColorSpaceM33Descriptor, align 8
  %3 = load ptr, ptr %0, align 8
  %4 = load ptr, ptr %3, align 8
  %5 = call zeroext i1 @pxr_nc_1_0_GetColorSpaceM33Descriptor(ptr noundef %4, ptr noundef nonnull %2)
  %6 = getelementptr inbounds nuw i8, ptr %2, i64 48
  %7 = load float, ptr %6, align 8
  %.0 = select i1 %5, float %7, float 0.000000e+00
  ret float %.0
}